; Function Attrs: mustprogress nofree norecurse nosync nounwind willreturn memory(read, inaccessiblemem: none) uwtable
define noundef float @_ZNK5faiss17AdditiveQuantizer22compute_1_distance_LUTILb0ELNS0_13Search_type_tE3EEEfPKhPKf(ptr nocapture noundef nonnull readonly align 8 dereferenceable(308) %0, ptr nocapture noundef readonly %1, ptr nocapture noundef readonly %2) local_unnamed_addr #13 align 2 {
  %4 = getelementptr inbounds i8, ptr %0, i64 24
  %5 = load i64, ptr %4, align 8
  %.not.i = icmp eq i64 %5, 0
  br i1 %.not.i, label %_ZN5faiss12_GLOBAL__N_114accumulate_IPsERKNS_17AdditiveQuantizerERNS_15BitstringReaderEPKhPKf.exit, label %.lr.ph.i

.lr.ph.i:                                         ; preds = %3
  %6 = getelementptr inbounds i8, ptr %0, i64 32
  %7 = load ptr, ptr %6, align 8
  br label %8

8:                                                ; preds = %_ZN5faiss15BitstringReader4readEi.exit.i, %.lr.ph.i
  %9 = phi i64 [ 0, %.lr.ph.i ], [ %.sroa.4.0, %_ZN5faiss15BitstringReader4readEi.exit.i ]
  %indvars.iv.i = phi i64 [ 0, %.lr.ph.i ], [ %indvars.iv.next.i, %_ZN5faiss15BitstringReader4readEi.exit.i ]
  %.05.i = phi ptr [ %2, %.lr.ph.i ], [ %54, %_ZN5faiss15BitstringReader4readEi.exit.i ]
  %.0124.i = phi float [ 0.000000e+00, %.lr.ph.i ], [ %52, %_ZN5faiss15BitstringReader4readEi.exit.i ]
  %10 = getelementptr inbounds i64, ptr %7, i64 %indvars.iv.i
  %11 = load i64, ptr %10, align 8
  %12 = trunc i64 %11 to i32
  %13 = trunc i64 %9 to i32
  %14 = and i32 %13, 7
  %15 = sub nuw nsw i32 8, %14
  %16 = lshr i64 %9, 3
  %17 = getelementptr inbounds i8, ptr %1, i64 %16
  %18 = load i8, ptr %17, align 1
  %19 = zext i8 %18 to i32
  %20 = lshr i32 %19, %14
  %.not.i.i = icmp slt i32 %15, %12
  br i1 %.not.i.i, label %26, label %21

21:                                               ; preds = %8
  %notmask30.i.i = shl nsw i32 -1, %12
  %22 = xor i32 %notmask30.i.i, -1
  %23 = and i32 %20, %22
  %24 = zext nneg i32 %23 to i64
  %sext1.i = shl i64 %11, 32
  %25 = ashr exact i64 %sext1.i, 32
  br label %_ZN5faiss15BitstringReader4readEi.exit.i

26:                                               ; preds = %8
  %27 = zext nneg i32 %20 to i64
  %28 = and i64 %11, 4294967295
  %29 = sub nsw i32 %12, %15
  %.02431.i.i = add nuw nsw i64 %16, 1
  %30 = icmp sgt i32 %29, 8
  br i1 %30, label %.lr.ph.preheader.i.i, label %._crit_edge.i.i

.lr.ph.preheader.i.i:                             ; preds = %26
  %31 = zext nneg i32 %15 to i64
  br label %.lr.ph.i.i

.lr.ph.i.i:                                       ; preds = %.lr.ph.i.i, %.lr.ph.preheader.i.i
  %indvars.iv.i.i = phi i64 [ %31, %.lr.ph.preheader.i.i ], [ %indvars.iv.next.i.i, %.lr.ph.i.i ]
  %.02435.i.i = phi i64 [ %.02431.i.i, %.lr.ph.preheader.i.i ], [ %.024.i.i, %.lr.ph.i.i ]
  %.02633.i.i = phi i64 [ %27, %.lr.ph.preheader.i.i ], [ %36, %.lr.ph.i.i ]
  %.02732.i.i = phi i32 [ %29, %.lr.ph.preheader.i.i ], [ %37, %.lr.ph.i.i ]
  %32 = getelementptr inbounds i8, ptr %1, i64 %.02435.i.i
  %33 = load i8, ptr %32, align 1
  %34 = zext i8 %33 to i64
  %35 = shl i64 %34, %indvars.iv.i.i
  %36 = or i64 %35, %.02633.i.i
  %indvars.iv.next.i.i = add nuw nsw i64 %indvars.iv.i.i, 8
  %37 = add nsw i32 %.02732.i.i, -8
  %.024.i.i = add nuw nsw i64 %.02435.i.i, 1
  %38 = icmp ugt i32 %.02732.i.i, 16
  br i1 %38, label %.lr.ph.i.i, label %._crit_edge.loopexit.i.i, !llvm.loop !16

._crit_edge.loopexit.i.i:                         ; preds = %.lr.ph.i.i
  %39 = trunc i64 %indvars.iv.next.i.i to i32
  br label %._crit_edge.i.i

._crit_edge.i.i:                                  ; preds = %._crit_edge.loopexit.i.i, %26
  %.027.lcssa.i.i = phi i32 [ %29, %26 ], [ %37, %._crit_edge.loopexit.i.i ]
  %.026.lcssa.i.i = phi i64 [ %27, %26 ], [ %36, %._crit_edge.loopexit.i.i ]
  %.025.lcssa.i.i = phi i32 [ %15, %26 ], [ %39, %._crit_edge.loopexit.i.i ]
  %.024.lcssa.i.i = phi i64 [ %.02431.i.i, %26 ], [ %.024.i.i, %._crit_edge.loopexit.i.i ]
  %40 = getelementptr inbounds i8, ptr %1, i64 %.024.lcssa.i.i
  %41 = load i8, ptr %40, align 1
  %notmask.i.i = shl nsw i32 -1, %.027.lcssa.i.i
  %42 = xor i32 %notmask.i.i, -1
  %43 = zext i8 %41 to i32
  %44 = and i32 %43, %42
  %45 = zext nneg i32 %44 to i64
  %46 = zext nneg i32 %.025.lcssa.i.i to i64
  %47 = shl i64 %45, %46
  %48 = or i64 %47, %.026.lcssa.i.i
  br label %_ZN5faiss15BitstringReader4readEi.exit.i

_ZN5faiss15BitstringReader4readEi.exit.i:         ; preds = %._crit_edge.i.i, %21
  %.pn = phi i64 [ %28, %._crit_edge.i.i ], [ %25, %21 ]
  %.0.i.i = phi i64 [ %48, %._crit_edge.i.i ], [ %24, %21 ]
  %.sroa.4.0 = add i64 %.pn, %9
  %sext.i = shl i64 %.0.i.i, 32
  %49 = ashr exact i64 %sext.i, 32
  %50 = getelementptr inbounds float, ptr %.05.i, i64 %49
  %51 = load float, ptr %50, align 4
  %52 = fadd float %.0124.i, %51
  %53 = shl nuw i64 1, %11
  %54 = getelementptr inbounds float, ptr %.05.i, i64 %53
  %indvars.iv.next.i = add nuw nsw i64 %indvars.iv.i, 1
  %exitcond.not = icmp eq i64 %indvars.iv.next.i, %5
  br i1 %exitcond.not, label %_ZN5faiss12_GLOBAL__N_114accumulate_IPsERKNS_17AdditiveQuantizerERNS_15BitstringReaderEPKhPKf.exit, label %8, !llvm.loop !37

_ZN5faiss12_GLOBAL__N_114accumulate_IPsERKNS_17AdditiveQuantizerERNS_15BitstringReaderEPKhPKf.exit: ; preds = %_ZN5faiss15BitstringReader4readEi.exit.i, %3
  %.sroa.4.1 = phi i64 [ 0, %3 ], [ %.sroa.4.0, %_ZN5faiss15BitstringReader4readEi.exit.i ]
  %.012.lcssa.i = phi float [ 0.000000e+00, %3 ], [ %52, %_ZN5faiss15BitstringReader4readEi.exit.i ]
  %55 = trunc i64 %.sroa.4.1 to i32
  %56 = and i32 %55, 7
  %57 = sub nuw nsw i32 8, %56
  %58 = lshr i64 %.sroa.4.1, 3
  %59 = getelementptr inbounds i8, ptr %1, i64 %58
  %60 = load i8, ptr %59, align 1
  %61 = zext i8 %60 to i32
  %62 = lshr i32 %61, %56
  %63 = zext nneg i32 %62 to i64
  %64 = or disjoint i32 %56, 24
  %.02431.i = add nuw nsw i64 %58, 1
  %65 = zext nneg i32 %57 to i64
  br label %.lr.ph.i7

.lr.ph.i7:                                        ; preds = %.lr.ph.i7, %_ZN5faiss12_GLOBAL__N_114accumulate_IPsERKNS_17AdditiveQuantizerERNS_15BitstringReaderEPKhPKf.exit
  %indvars.iv.i8 = phi i64 [ %65, %_ZN5faiss12_GLOBAL__N_114accumulate_IPsERKNS_17AdditiveQuantizerERNS_15BitstringReaderEPKhPKf.exit ], [ %indvars.iv.next.i9, %.lr.ph.i7 ]
  %.02435.i = phi i64 [ %.02431.i, %_ZN5faiss12_GLOBAL__N_114accumulate_IPsERKNS_17AdditiveQuantizerERNS_15BitstringReaderEPKhPKf.exit ], [ %.024.i, %.lr.ph.i7 ]
  %.02633.i = phi i64 [ %63, %_ZN5faiss12_GLOBAL__N_114accumulate_IPsERKNS_17AdditiveQuantizerERNS_15BitstringReaderEPKhPKf.exit ], [ %70, %.lr.ph.i7 ]
  %.02732.i = phi i32 [ %64, %_ZN5faiss12_GLOBAL__N_114accumulate_IPsERKNS_17AdditiveQuantizerERNS_15BitstringReaderEPKhPKf.exit ], [ %71, %.lr.ph.i7 ]
  %66 = getelementptr inbounds i8, ptr %1, i64 %.02435.i
  %67 = load i8, ptr %66, align 1
  %68 = zext i8 %67 to i64
  %69 = shl i64 %68, %indvars.iv.i8
  %70 = or i64 %69, %.02633.i
  %indvars.iv.next.i9 = add nuw nsw i64 %indvars.iv.i8, 8
  %71 = add nsw i32 %.02732.i, -8
  %.024.i = add nuw nsw i64 %.02435.i, 1
  %72 = icmp ugt i32 %.02732.i, 16
  br i1 %72, label %.lr.ph.i7, label %._crit_edge.loopexit.i, !llvm.loop !16

._crit_edge.loopexit.i:                           ; preds = %.lr.ph.i7
  %73 = getelementptr inbounds i8, ptr %1, i64 %.024.i
  %74 = load i8, ptr %73, align 1
  %notmask.i = shl nsw i32 -1, %71
  %75 = xor i32 %notmask.i, -1
  %76 = zext i8 %74 to i32
  %77 = and i32 %76, %75
  %78 = zext nneg i32 %77 to i64
  %79 = and i64 %indvars.iv.next.i9, 4294967295
  %80 = shl i64 %78, %79
  %81 = or i64 %80, %70
  %82 = trunc i64 %81 to i32
  %83 = bitcast i32 %82 to float
  %84 = tail call float @llvm.fmuladd.f32(float %.012.lcssa.i, float -2.000000e+00, float %83)
  ret float %84
}